target datalayout = "e-m:e-p270:32:32-p271:32:32-p272:64:64-i64:64-i128:128-f80:128-n8:16:32:64-S128"
target triple = "x86_64-pc-linux-gnu"

%struct.Map_ManStruct_t_ = type { ptr, i32, ptr, i32, ptr, i32, i32, ptr, ptr, ptr, ptr, ptr, ptr, ptr, ptr, i32, i32, i32, i32, float, float, float, float, i32, i32, float, i32, i32, i32, i32, ptr, [6 x [2 x i32]], [10 x [32 x i32]], [32 x i32], [32 x i32], ptr, ptr, ptr, ptr, ptr, ptr, i32, i32, i32, i32, i32, i32, i64, i64, i64, i64, i64, i64, i64, i64, i64, i64, i64 }

; Function Attrs: nounwind uwtable
define void @Map_ManFree(ptr noundef %0) #0 {
  %2 = alloca ptr, align 8
  store ptr %0, ptr %2, align 8, !tbaa !3
  %3 = load ptr, ptr %2, align 8, !tbaa !3
  %4 = getelementptr inbounds nuw %struct.Map_ManStruct_t_, ptr %3, i32 0, i32 8
  %5 = load ptr, ptr %4, align 8, !tbaa !96
  call void @Map_NodeVecFree(ptr noundef %5)
  %6 = load ptr, ptr %2, align 8, !tbaa !3
  %7 = getelementptr inbounds nuw %struct.Map_ManStruct_t_, ptr %6, i32 0, i32 9
  %8 = load ptr, ptr %7, align 8, !tbaa !25
  call void @Map_NodeVecFree(ptr noundef %8)
  %9 = load ptr, ptr %2, align 8, !tbaa !3
  %10 = getelementptr inbounds nuw %struct.Map_ManStruct_t_, ptr %9, i32 0, i32 35
  %11 = load ptr, ptr %10, align 8, !tbaa !97
  call void @Map_NodeVecFree(ptr noundef %11)
  %12 = load ptr, ptr %2, align 8, !tbaa !3
  %13 = getelementptr inbounds nuw %struct.Map_ManStruct_t_, ptr %12, i32 0, i32 38
  %14 = load ptr, ptr %13, align 8, !tbaa !106
  %15 = icmp ne ptr %14, null
  br i1 %15, label %16, label %29

16:                                               ; preds = %1
  %17 = load ptr, ptr %2, align 8, !tbaa !3
  %18 = getelementptr inbounds nuw %struct.Map_ManStruct_t_, ptr %17, i32 0, i32 38
  %19 = load ptr, ptr %18, align 8, !tbaa !106
  %20 = icmp ne ptr %19, null
  br i1 %20, label %21, label %27

21:                                               ; preds = %16
  %22 = load ptr, ptr %2, align 8, !tbaa !3
  %23 = getelementptr inbounds nuw %struct.Map_ManStruct_t_, ptr %22, i32 0, i32 38
  %24 = load ptr, ptr %23, align 8, !tbaa !106
  call void @free(ptr noundef %24) #12
  %25 = load ptr, ptr %2, align 8, !tbaa !3
  %26 = getelementptr inbounds nuw %struct.Map_ManStruct_t_, ptr %25, i32 0, i32 38
  store ptr null, ptr %26, align 8, !tbaa !106
  br label %28

27:                                               ; preds = %16
  br label %28

28:                                               ; preds = %27, %21
  br label %29

29:                                               ; preds = %28, %1
  %30 = load ptr, ptr %2, align 8, !tbaa !3
  %31 = getelementptr inbounds nuw %struct.Map_ManStruct_t_, ptr %30, i32 0, i32 39
  %32 = load ptr, ptr %31, align 8, !tbaa !107
  %33 = icmp ne ptr %32, null
  br i1 %33, label %34, label %47

34:                                               ; preds = %29
  %35 = load ptr, ptr %2, align 8, !tbaa !3
  %36 = getelementptr inbounds nuw %struct.Map_ManStruct_t_, ptr %35, i32 0, i32 39
  %37 = load ptr, ptr %36, align 8, !tbaa !107
  %38 = icmp ne ptr %37, null
  br i1 %38, label %39, label %45

39:                                               ; preds = %34
  %40 = load ptr, ptr %2, align 8, !tbaa !3
  %41 = getelementptr inbounds nuw %struct.Map_ManStruct_t_, ptr %40, i32 0, i32 39
  %42 = load ptr, ptr %41, align 8, !tbaa !107
  call void @free(ptr noundef %42) #12
  %43 = load ptr, ptr %2, align 8, !tbaa !3
  %44 = getelementptr inbounds nuw %struct.Map_ManStruct_t_, ptr %43, i32 0, i32 39
  store ptr null, ptr %44, align 8, !tbaa !107
  br label %46

45:                                               ; preds = %34
  br label %46

46:                                               ; preds = %45, %39
  br label %47

47:                                               ; preds = %46, %29
  %48 = load ptr, ptr %2, align 8, !tbaa !3
  %49 = getelementptr inbounds nuw %struct.Map_ManStruct_t_, ptr %48, i32 0, i32 40
  %50 = load ptr, ptr %49, align 8, !tbaa !108
  %51 = icmp ne ptr %50, null
  br i1 %51, label %52, label %65

52:                                               ; preds = %47
  %53 = load ptr, ptr %2, align 8, !tbaa !3
  %54 = getelementptr inbounds nuw %struct.Map_ManStruct_t_, ptr %53, i32 0, i32 40
  %55 = load ptr, ptr %54, align 8, !tbaa !108
  %56 = icmp ne ptr %55, null
  br i1 %56, label %57, label %63

57:                                               ; preds = %52
  %58 = load ptr, ptr %2, align 8, !tbaa !3
  %59 = getelementptr inbounds nuw %struct.Map_ManStruct_t_, ptr %58, i32 0, i32 40
  %60 = load ptr, ptr %59, align 8, !tbaa !108
  call void @free(ptr noundef %60) #12
  %61 = load ptr, ptr %2, align 8, !tbaa !3
  %62 = getelementptr inbounds nuw %struct.Map_ManStruct_t_, ptr %61, i32 0, i32 40
  store ptr null, ptr %62, align 8, !tbaa !108
  br label %64

63:                                               ; preds = %52
  br label %64

64:                                               ; preds = %63, %57
  br label %65

65:                                               ; preds = %64, %47
  %66 = load ptr, ptr %2, align 8, !tbaa !3
  %67 = getelementptr inbounds nuw %struct.Map_ManStruct_t_, ptr %66, i32 0, i32 36
  %68 = load ptr, ptr %67, align 8, !tbaa !93
  call void @Extra_MmFixedStop(ptr noundef %68)
  %69 = load ptr, ptr %2, align 8, !tbaa !3
  %70 = getelementptr inbounds nuw %struct.Map_ManStruct_t_, ptr %69, i32 0, i32 37
  %71 = load ptr, ptr %70, align 8, !tbaa !94
  call void @Extra_MmFixedStop(ptr noundef %71)
  %72 = load ptr, ptr %2, align 8, !tbaa !3
  %73 = getelementptr inbounds nuw %struct.Map_ManStruct_t_, ptr %72, i32 0, i32 14
  %74 = load ptr, ptr %73, align 8, !tbaa !63
  %75 = icmp ne ptr %74, null
  br i1 %75, label %76, label %82

76:                                               ; preds = %65
  %77 = load ptr, ptr %2, align 8, !tbaa !3
  %78 = getelementptr inbounds nuw %struct.Map_ManStruct_t_, ptr %77, i32 0, i32 14
  %79 = load ptr, ptr %78, align 8, !tbaa !63
  call void @free(ptr noundef %79) #12
  %80 = load ptr, ptr %2, align 8, !tbaa !3
  %81 = getelementptr inbounds nuw %struct.Map_ManStruct_t_, ptr %80, i32 0, i32 14
  store ptr null, ptr %81, align 8, !tbaa !63
  br label %83

82:                                               ; preds = %65
  br label %83

83:                                               ; preds = %82, %76
  %84 = load ptr, ptr %2, align 8, !tbaa !3
  %85 = getelementptr inbounds nuw %struct.Map_ManStruct_t_, ptr %84, i32 0, i32 10
  %86 = load ptr, ptr %85, align 8, !tbaa !109
  %87 = icmp ne ptr %86, null
  br i1 %87, label %88, label %94

88:                                               ; preds = %83
  %89 = load ptr, ptr %2, align 8, !tbaa !3
  %90 = getelementptr inbounds nuw %struct.Map_ManStruct_t_, ptr %89, i32 0, i32 10
  %91 = load ptr, ptr %90, align 8, !tbaa !109
  call void @free(ptr noundef %91) #12
  %92 = load ptr, ptr %2, align 8, !tbaa !3
  %93 = getelementptr inbounds nuw %struct.Map_ManStruct_t_, ptr %92, i32 0, i32 10
  store ptr null, ptr %93, align 8, !tbaa !109
  br label %95

94:                                               ; preds = %83
  br label %95

95:                                               ; preds = %94, %88
  %96 = load ptr, ptr %2, align 8, !tbaa !3
  %97 = getelementptr inbounds nuw %struct.Map_ManStruct_t_, ptr %96, i32 0, i32 12
  %98 = load ptr, ptr %97, align 8, !tbaa !34
  %99 = icmp ne ptr %98, null
  br i1 %99, label %100, label %106

100:                                              ; preds = %95
  %101 = load ptr, ptr %2, align 8, !tbaa !3
  %102 = getelementptr inbounds nuw %struct.Map_ManStruct_t_, ptr %101, i32 0, i32 12
  %103 = load ptr, ptr %102, align 8, !tbaa !34
  call void @free(ptr noundef %103) #12
  %104 = load ptr, ptr %2, align 8, !tbaa !3
  %105 = getelementptr inbounds nuw %struct.Map_ManStruct_t_, ptr %104, i32 0, i32 12
  store ptr null, ptr %105, align 8, !tbaa !34
  br label %107

106:                                              ; preds = %95
  br label %107

107:                                              ; preds = %106, %100
  %108 = load ptr, ptr %2, align 8, !tbaa !3
  %109 = getelementptr inbounds nuw %struct.Map_ManStruct_t_, ptr %108, i32 0, i32 13
  %110 = load ptr, ptr %109, align 8, !tbaa !35
  %111 = icmp ne ptr %110, null
  br i1 %111, label %112, label %118

112:                                              ; preds = %107
  %113 = load ptr, ptr %2, align 8, !tbaa !3
  %114 = getelementptr inbounds nuw %struct.Map_ManStruct_t_, ptr %113, i32 0, i32 13
  %115 = load ptr, ptr %114, align 8, !tbaa !35
  call void @free(ptr noundef %115) #12
  %116 = load ptr, ptr %2, align 8, !tbaa !3
  %117 = getelementptr inbounds nuw %struct.Map_ManStruct_t_, ptr %116, i32 0, i32 13
  store ptr null, ptr %117, align 8, !tbaa !35
  br label %119

118:                                              ; preds = %107
  br label %119

119:                                              ; preds = %118, %112
  %120 = load ptr, ptr %2, align 8, !tbaa !3
  %121 = getelementptr inbounds nuw %struct.Map_ManStruct_t_, ptr %120, i32 0, i32 2
  %122 = load ptr, ptr %121, align 8, !tbaa !26
  %123 = icmp ne ptr %122, null
  br i1 %123, label %124, label %130

124:                                              ; preds = %119
  %125 = load ptr, ptr %2, align 8, !tbaa !3
  %126 = getelementptr inbounds nuw %struct.Map_ManStruct_t_, ptr %125, i32 0, i32 2
  %127 = load ptr, ptr %126, align 8, !tbaa !26
  call void @free(ptr noundef %127) #12
  %128 = load ptr, ptr %2, align 8, !tbaa !3
  %129 = getelementptr inbounds nuw %struct.Map_ManStruct_t_, ptr %128, i32 0, i32 2
  store ptr null, ptr %129, align 8, !tbaa !26
  br label %131

130:                                              ; preds = %119
  br label %131

131:                                              ; preds = %130, %124
  %132 = load ptr, ptr %2, align 8, !tbaa !3
  %133 = getelementptr inbounds nuw %struct.Map_ManStruct_t_, ptr %132, i32 0, i32 4
  %134 = load ptr, ptr %133, align 8, !tbaa !27
  %135 = icmp ne ptr %134, null
  br i1 %135, label %136, label %142

136:                                              ; preds = %131
  %137 = load ptr, ptr %2, align 8, !tbaa !3
  %138 = getelementptr inbounds nuw %struct.Map_ManStruct_t_, ptr %137, i32 0, i32 4
  %139 = load ptr, ptr %138, align 8, !tbaa !27
  call void @free(ptr noundef %139) #12
  %140 = load ptr, ptr %2, align 8, !tbaa !3
  %141 = getelementptr inbounds nuw %struct.Map_ManStruct_t_, ptr %140, i32 0, i32 4
  store ptr null, ptr %141, align 8, !tbaa !27
  br label %143

142:                                              ; preds = %131
  br label %143

143:                                              ; preds = %142, %136
  %144 = load ptr, ptr %2, align 8, !tbaa !3
  %145 = getelementptr inbounds nuw %struct.Map_ManStruct_t_, ptr %144, i32 0, i32 0
  %146 = load ptr, ptr %145, align 8, !tbaa !101
  %147 = icmp ne ptr %146, null
  br i1 %147, label %148, label %154

148:                                              ; preds = %143
  %149 = load ptr, ptr %2, align 8, !tbaa !3
  %150 = getelementptr inbounds nuw %struct.Map_ManStruct_t_, ptr %149, i32 0, i32 0
  %151 = load ptr, ptr %150, align 8, !tbaa !101
  call void @free(ptr noundef %151) #12
  %152 = load ptr, ptr %2, align 8, !tbaa !3
  %153 = getelementptr inbounds nuw %struct.Map_ManStruct_t_, ptr %152, i32 0, i32 0
  store ptr null, ptr %153, align 8, !tbaa !101
  br label %155

154:                                              ; preds = %143
  br label %155

155:                                              ; preds = %154, %148
  %156 = load ptr, ptr %2, align 8, !tbaa !3
  %157 = getelementptr inbounds nuw %struct.Map_ManStruct_t_, ptr %156, i32 0, i32 11
  %158 = load ptr, ptr %157, align 8, !tbaa !50
  %159 = icmp ne ptr %158, null
  br i1 %159, label %160, label %166

160:                                              ; preds = %155
  %161 = load ptr, ptr %2, align 8, !tbaa !3
  %162 = getelementptr inbounds nuw %struct.Map_ManStruct_t_, ptr %161, i32 0, i32 11
  %163 = load ptr, ptr %162, align 8, !tbaa !50
  call void @free(ptr noundef %163) #12
  %164 = load ptr, ptr %2, align 8, !tbaa !3
  %165 = getelementptr inbounds nuw %struct.Map_ManStruct_t_, ptr %164, i32 0, i32 11
  store ptr null, ptr %165, align 8, !tbaa !50
  br label %167

166:                                              ; preds = %155
  br label %167

167:                                              ; preds = %166, %160
  %168 = load ptr, ptr %2, align 8, !tbaa !3
  %169 = icmp ne ptr %168, null
  br i1 %169, label %170, label %172

170:                                              ; preds = %167
  %171 = load ptr, ptr %2, align 8, !tbaa !3
  call void @free(ptr noundef %171) #12
  store ptr null, ptr %2, align 8, !tbaa !3
  br label %173

172:                                              ; preds = %167
  br label %173

173:                                              ; preds = %172, %170
  ret void
}