; Function Attrs: nounwind uwtable
define void @Map_ManFree(ptr noundef captures(none) %0) local_unnamed_addr #1 {
  %2 = getelementptr inbounds nuw i8, ptr %0, i64 56
  %3 = load ptr, ptr %2, align 8, !tbaa !96
  tail call void @Map_NodeVecFree(ptr noundef %3) #23
  %4 = getelementptr inbounds nuw i8, ptr %0, i64 64
  %5 = load ptr, ptr %4, align 8, !tbaa !23
  tail call void @Map_NodeVecFree(ptr noundef %5) #23
  %6 = getelementptr inbounds nuw i8, ptr %0, i64 1768
  %7 = load ptr, ptr %6, align 8, !tbaa !97
  tail call void @Map_NodeVecFree(ptr noundef %7) #23
  %8 = getelementptr inbounds nuw i8, ptr %0, i64 1792
  %9 = load ptr, ptr %8, align 8, !tbaa !100
  %.not = icmp eq ptr %9, null
  br i1 %.not, label %11, label %10

10:                                               ; preds = %1
  tail call void @free(ptr noundef nonnull %9) #23
  store ptr null, ptr %8, align 8, !tbaa !100
  br label %11

11:                                               ; preds = %10, %1
  %12 = getelementptr inbounds nuw i8, ptr %0, i64 1800
  %13 = load ptr, ptr %12, align 8, !tbaa !101
  %.not53 = icmp eq ptr %13, null
  br i1 %.not53, label %15, label %14

14:                                               ; preds = %11
  tail call void @free(ptr noundef nonnull %13) #23
  store ptr null, ptr %12, align 8, !tbaa !101
  br label %15

15:                                               ; preds = %14, %11
  %16 = getelementptr inbounds nuw i8, ptr %0, i64 1808
  %17 = load ptr, ptr %16, align 8, !tbaa !102
  %.not54 = icmp eq ptr %17, null
  br i1 %.not54, label %19, label %18

18:                                               ; preds = %15
  tail call void @free(ptr noundef nonnull %17) #23
  store ptr null, ptr %16, align 8, !tbaa !102
  br label %19

19:                                               ; preds = %18, %15
  %20 = getelementptr inbounds nuw i8, ptr %0, i64 1776
  %21 = load ptr, ptr %20, align 8, !tbaa !91
  tail call void @Extra_MmFixedStop(ptr noundef %21) #23
  %22 = getelementptr inbounds nuw i8, ptr %0, i64 1784
  %23 = load ptr, ptr %22, align 8, !tbaa !92
  tail call void @Extra_MmFixedStop(ptr noundef %23) #23
  %24 = getelementptr inbounds nuw i8, ptr %0, i64 104
  %25 = load ptr, ptr %24, align 8, !tbaa !58
  %.not55 = icmp eq ptr %25, null
  br i1 %.not55, label %27, label %26

26:                                               ; preds = %19
  tail call void @free(ptr noundef nonnull %25) #23
  store ptr null, ptr %24, align 8, !tbaa !58
  br label %27

27:                                               ; preds = %19, %26
  %28 = getelementptr inbounds nuw i8, ptr %0, i64 72
  %29 = load ptr, ptr %28, align 8, !tbaa !103
  %.not56 = icmp eq ptr %29, null
  br i1 %.not56, label %31, label %30

30:                                               ; preds = %27
  tail call void @free(ptr noundef nonnull %29) #23
  store ptr null, ptr %28, align 8, !tbaa !103
  br label %31

31:                                               ; preds = %27, %30
  %32 = getelementptr inbounds nuw i8, ptr %0, i64 88
  %33 = load ptr, ptr %32, align 8, !tbaa !32
  %.not57 = icmp eq ptr %33, null
  br i1 %.not57, label %35, label %34

34:                                               ; preds = %31
  tail call void @free(ptr noundef nonnull %33) #23
  store ptr null, ptr %32, align 8, !tbaa !32
  br label %35

35:                                               ; preds = %31, %34
  %36 = getelementptr inbounds nuw i8, ptr %0, i64 96
  %37 = load ptr, ptr %36, align 8, !tbaa !33
  %.not58 = icmp eq ptr %37, null
  br i1 %.not58, label %39, label %38

38:                                               ; preds = %35
  tail call void @free(ptr noundef nonnull %37) #23
  store ptr null, ptr %36, align 8, !tbaa !33
  br label %39

39:                                               ; preds = %35, %38
  %40 = getelementptr inbounds nuw i8, ptr %0, i64 16
  %41 = load ptr, ptr %40, align 8, !tbaa !24
  %.not59 = icmp eq ptr %41, null
  br i1 %.not59, label %43, label %42

42:                                               ; preds = %39
  tail call void @free(ptr noundef nonnull %41) #23
  store ptr null, ptr %40, align 8, !tbaa !24
  br label %43

43:                                               ; preds = %39, %42
  %44 = getelementptr inbounds nuw i8, ptr %0, i64 32
  %45 = load ptr, ptr %44, align 8, !tbaa !25
  %.not60 = icmp eq ptr %45, null
  br i1 %.not60, label %47, label %46

46:                                               ; preds = %43
  tail call void @free(ptr noundef nonnull %45) #23
  store ptr null, ptr %44, align 8, !tbaa !25
  br label %47

47:                                               ; preds = %43, %46
  %48 = load ptr, ptr %0, align 8, !tbaa !89
  %.not61 = icmp eq ptr %48, null
  br i1 %.not61, label %50, label %49

49:                                               ; preds = %47
  tail call void @free(ptr noundef nonnull %48) #23
  store ptr null, ptr %0, align 8, !tbaa !89
  br label %50

50:                                               ; preds = %47, %49
  %51 = getelementptr inbounds nuw i8, ptr %0, i64 80
  %52 = load ptr, ptr %51, align 8, !tbaa !47
  %.not62 = icmp eq ptr %52, null
  br i1 %.not62, label %54, label %53

53:                                               ; preds = %50
  tail call void @free(ptr noundef nonnull %52) #23
  br label %54

54:                                               ; preds = %53, %50
  tail call void @free(ptr noundef nonnull %0) #23
  ret void
}